; Function Attrs: nounwind uwtable
define range(i32 0, 2) i32 @jsimd_can_h2v1_downsample() local_unnamed_addr #0 {
  tail call fastcc void @init_simd()
  %1 = tail call align 4 ptr @llvm.threadlocal.address.p0(ptr align 4 @simd_support)
  %2 = load i32, ptr %1, align 4, !tbaa !3
  %3 = and i32 %2, 136
  %4 = icmp ne i32 %3, 0
  %.0 = zext i1 %4 to i32
  ret i32 %.0
}